target datalayout = "e-m:e-p270:32:32-p271:32:32-p272:64:64-i64:64-i128:128-f80:128-n8:16:32:64-S128"
target triple = "x86_64-pc-linux-gnu"

%struct._zend_executor_globals = type { %struct._zval_struct, %struct._zval_struct, [32 x ptr], ptr, ptr, %struct._zend_array, %struct._zend_array, ptr, i32, i8, %struct._zval_struct, i32, ptr, ptr, ptr, ptr, ptr, ptr, i64, ptr, ptr, i32, ptr, i32, i64, i32, i32, i32, i8, i8, %struct.zend_atomic_bool_s, %struct.zend_atomic_bool_s, ptr, i64, ptr, ptr, %struct._zend_array, %struct._zend_array, i32, i8, %struct._zval_struct, %struct._zval_struct, %struct._zend_stack, %struct._zend_stack, %struct._zend_stack, ptr, i32, i32, i64, ptr, ptr, ptr, %struct._zend_objects_store, %struct._zend_lazy_objects_store, ptr, ptr, ptr, [3 x %struct._zend_op], ptr, i8, i8, i64, i32, i32, ptr, [16 x %struct._HashTableIterator], ptr, %union._zend_function, %struct._zend_op, %struct._zend_array, i64, %struct.zend_get_gc_buffer, ptr, ptr, ptr, i64, i8, i32, ptr, ptr, i64, %struct._zend_call_stack, i64, i64, %struct._zend_strtod_state, [6 x ptr] }
%struct.zend_atomic_bool_s = type { i8 }
%struct._zval_struct = type { %union._zend_value, %union.anon, %union.anon.2 }
%union._zend_value = type { i64 }
%union.anon = type { i32 }
%union.anon.2 = type { i32 }
%struct._zend_stack = type { i32, i32, i32, ptr }
%struct._zend_objects_store = type { ptr, i32, i32, i32 }
%struct._zend_lazy_objects_store = type { %struct._zend_array }
%struct._HashTableIterator = type { ptr, i32, i32 }
%union._zend_function = type { %struct._zend_op_array }
%struct._zend_op_array = type { i8, [3 x i8], i32, ptr, ptr, ptr, i32, i32, ptr, ptr, ptr, ptr, i32, ptr, i32, i32, i32, ptr, ptr, ptr, ptr, ptr, i32, i32, ptr, ptr, ptr, i32, i32, i32, i32, ptr, ptr, [6 x ptr] }
%struct._zend_op = type { ptr, %union._znode_op, %union._znode_op, %union._znode_op, i32, i32, i8, i8, i8, i8 }
%union._znode_op = type { i32 }
%struct._zend_array = type { %struct._zend_refcounted_h, %union.anon.4, i32, %union.anon.6, i32, i32, i32, i32, i64, ptr }
%struct._zend_refcounted_h = type { i32, %union.anon.3 }
%union.anon.3 = type { i32 }
%union.anon.4 = type { i32 }
%union.anon.6 = type { ptr }
%struct.zend_get_gc_buffer = type { ptr, ptr, ptr }
%struct._zend_call_stack = type { ptr, i64 }
%struct._zend_strtod_state = type { [8 x ptr], ptr, ptr }
%struct.stat = type { i64, i64, i64, i32, i32, i32, i32, i64, i64, i64, i64, %struct.timespec, %struct.timespec, %struct.timespec, [3 x i64] }
%struct.timespec = type { i64, i64 }
%struct._php_stream_statbuf = type { %struct.stat }
%struct._zend_object_handlers = type { i32, ptr, ptr, ptr, ptr, ptr, ptr, ptr, ptr, ptr, ptr, ptr, ptr, ptr, ptr, ptr, ptr, ptr, ptr, ptr, ptr, ptr, ptr, ptr, ptr }
%struct._zend_execute_data = type { ptr, ptr, ptr, ptr, %struct._zval_struct, ptr, ptr, ptr, ptr }
%struct._phar_archive_data = type { ptr, i32, ptr, i32, ptr, i32, [12 x i8], i64, %struct._zend_array, %struct._zend_array, %struct._zend_array, i32, i32, i32, ptr, ptr, i32, i32, i32, ptr, %struct._phar_metadata_tracker, i32, i16 }
%struct._phar_metadata_tracker = type { %struct._zval_struct, ptr }
%struct._zend_object = type { %struct._zend_refcounted_h, i32, i32, ptr, ptr, ptr, [1 x %struct._zval_struct] }

@executor_globals = external global %struct._zend_executor_globals, align 8
@spl_ce_BadMethodCallException = external global ptr, align 8
@.str.72 = private unnamed_addr constant [51 x i8] c"Cannot call method on an uninitialized Phar object\00", align 1

; Function Attrs: nounwind uwtable
define hidden void @zim_Phar_isWritable(ptr noundef %0, ptr noundef %1) #0 {
  %3 = alloca ptr, align 8
  %4 = alloca ptr, align 8
  %5 = alloca %struct._php_stream_statbuf, align 8
  %6 = alloca i32, align 4
  %7 = alloca ptr, align 8
  %8 = alloca ptr, align 8
  store ptr %0, ptr %3, align 8, !tbaa !4
  store ptr %1, ptr %4, align 8, !tbaa !9
  call void @llvm.lifetime.start.p0(i64 144, ptr %5) #17
  %9 = load ptr, ptr %3, align 8, !tbaa !4
  %10 = getelementptr inbounds nuw %struct._zend_execute_data, ptr %9, i32 0, i32 4
  %11 = getelementptr inbounds nuw %struct._zval_struct, ptr %10, i32 0, i32 2
  %12 = load i32, ptr %11, align 4, !tbaa !13
  %13 = icmp eq i32 %12, 0
  %14 = xor i1 %13, true
  %15 = xor i1 %14, true
  %16 = zext i1 %15 to i32
  %17 = sext i32 %16 to i64
  %18 = call i64 @llvm.expect.i64(i64 %17, i64 1)
  %19 = icmp ne i64 %18, 0
  br i1 %19, label %20, label %21

20:                                               ; preds = %2
  br label %22

21:                                               ; preds = %2
  call void @zend_wrong_parameters_none_error()
  br label %22

22:                                               ; preds = %21, %20
  %23 = phi i32 [ 0, %20 ], [ -1, %21 ]
  %24 = icmp eq i32 %23, -1
  br i1 %24, label %25, label %31

25:                                               ; preds = %22
  br label %26

26:                                               ; preds = %25
  %27 = load ptr, ptr getelementptr inbounds nuw (%struct._zend_executor_globals, ptr @executor_globals, i32 0, i32 54), align 8, !tbaa !14
  %28 = icmp ne ptr %27, null
  call void @llvm.assume(i1 %28)
  store i32 1, ptr %6, align 4
  br label %126

29:                                               ; No predecessors!
  br label %30

30:                                               ; preds = %29
  br label %31

31:                                               ; preds = %30, %22
  call void @llvm.lifetime.start.p0(i64 8, ptr %7) #17
  %32 = load ptr, ptr %3, align 8, !tbaa !4
  %33 = getelementptr inbounds nuw %struct._zend_execute_data, ptr %32, i32 0, i32 4
  store ptr %33, ptr %7, align 8, !tbaa !9
  call void @llvm.lifetime.start.p0(i64 8, ptr %8) #17
  %34 = load ptr, ptr %7, align 8, !tbaa !9
  %35 = getelementptr inbounds nuw %struct._zval_struct, ptr %34, i32 0, i32 0
  %36 = load ptr, ptr %35, align 8, !tbaa !13
  %37 = load ptr, ptr %7, align 8, !tbaa !9
  %38 = getelementptr inbounds nuw %struct._zval_struct, ptr %37, i32 0, i32 0
  %39 = load ptr, ptr %38, align 8, !tbaa !13
  %40 = getelementptr inbounds nuw %struct._zend_object, ptr %39, i32 0, i32 4
  %41 = load ptr, ptr %40, align 8, !tbaa !118
  %42 = getelementptr inbounds nuw %struct._zend_object_handlers, ptr %41, i32 0, i32 0
  %43 = load i32, ptr %42, align 8, !tbaa !121
  %44 = sext i32 %43 to i64
  %45 = sub i64 0, %44
  %46 = getelementptr inbounds i8, ptr %36, i64 %45
  store ptr %46, ptr %8, align 8, !tbaa !123
  %47 = load ptr, ptr %8, align 8, !tbaa !123
  %48 = load ptr, ptr %47, align 8, !tbaa !13
  %49 = icmp ne ptr %48, null
  br i1 %49, label %58, label %50

50:                                               ; preds = %31
  %51 = load ptr, ptr @spl_ce_BadMethodCallException, align 8, !tbaa !53
  %52 = call ptr (ptr, i64, ptr, ...) @zend_throw_exception_ex(ptr noundef %51, i64 noundef 0, ptr noundef @.str.72)
  br label %53

53:                                               ; preds = %50
  %54 = load ptr, ptr getelementptr inbounds nuw (%struct._zend_executor_globals, ptr @executor_globals, i32 0, i32 54), align 8, !tbaa !14
  %55 = icmp ne ptr %54, null
  call void @llvm.assume(i1 %55)
  store i32 1, ptr %6, align 4
  br label %125

56:                                               ; No predecessors!
  br label %57

57:                                               ; preds = %56
  br label %58

58:                                               ; preds = %57, %31
  %59 = load ptr, ptr %8, align 8, !tbaa !123
  %60 = load ptr, ptr %59, align 8, !tbaa !13
  %61 = getelementptr inbounds nuw %struct._phar_archive_data, ptr %60, i32 0, i32 22
  %62 = load i16, ptr %61, align 4
  %63 = lshr i16 %62, 2
  %64 = and i16 %63, 1
  %65 = zext i16 %64 to i32
  %66 = icmp ne i32 %65, 0
  br i1 %66, label %76, label %67

67:                                               ; preds = %58
  br label %68

68:                                               ; preds = %67
  br label %69

69:                                               ; preds = %68
  %70 = load ptr, ptr %4, align 8, !tbaa !9
  %71 = getelementptr inbounds nuw %struct._zval_struct, ptr %70, i32 0, i32 1
  store i32 2, ptr %71, align 8, !tbaa !13
  br label %72

72:                                               ; preds = %69
  br label %73

73:                                               ; preds = %72
  store i32 1, ptr %6, align 4
  br label %125

74:                                               ; No predecessors!
  br label %75

75:                                               ; preds = %74
  br label %76

76:                                               ; preds = %75, %58
  %77 = load ptr, ptr %8, align 8, !tbaa !123
  %78 = load ptr, ptr %77, align 8, !tbaa !13
  %79 = getelementptr inbounds nuw %struct._phar_archive_data, ptr %78, i32 0, i32 0
  %80 = load ptr, ptr %79, align 8, !tbaa !128
  %81 = call i32 @_php_stream_stat_path(ptr noundef %80, i32 noundef 0, ptr noundef %5, ptr noundef null)
  %82 = icmp ne i32 0, %81
  br i1 %82, label %83, label %110

83:                                               ; preds = %76
  %84 = load ptr, ptr %8, align 8, !tbaa !123
  %85 = load ptr, ptr %84, align 8, !tbaa !13
  %86 = getelementptr inbounds nuw %struct._phar_archive_data, ptr %85, i32 0, i32 22
  %87 = load i16, ptr %86, align 4
  %88 = lshr i16 %87, 3
  %89 = and i16 %88, 1
  %90 = zext i16 %89 to i32
  %91 = icmp ne i32 %90, 0
  br i1 %91, label %92, label %101

92:                                               ; preds = %83
  br label %93

93:                                               ; preds = %92
  br label %94

94:                                               ; preds = %93
  %95 = load ptr, ptr %4, align 8, !tbaa !9
  %96 = getelementptr inbounds nuw %struct._zval_struct, ptr %95, i32 0, i32 1
  store i32 3, ptr %96, align 8, !tbaa !13
  br label %97

97:                                               ; preds = %94
  br label %98

98:                                               ; preds = %97
  store i32 1, ptr %6, align 4
  br label %125

99:                                               ; No predecessors!
  br label %100

100:                                              ; preds = %99
  br label %101

101:                                              ; preds = %100, %83
  br label %102

102:                                              ; preds = %101
  br label %103

103:                                              ; preds = %102
  %104 = load ptr, ptr %4, align 8, !tbaa !9
  %105 = getelementptr inbounds nuw %struct._zval_struct, ptr %104, i32 0, i32 1
  store i32 2, ptr %105, align 8, !tbaa !13
  br label %106

106:                                              ; preds = %103
  br label %107

107:                                              ; preds = %106
  store i32 1, ptr %6, align 4
  br label %125

108:                                              ; No predecessors!
  br label %109

109:                                              ; preds = %108
  br label %110

110:                                              ; preds = %109, %76
  br label %111

111:                                              ; preds = %110
  br label %112

112:                                              ; preds = %111
  %113 = getelementptr inbounds nuw %struct._php_stream_statbuf, ptr %5, i32 0, i32 0
  %114 = getelementptr inbounds nuw %struct.stat, ptr %113, i32 0, i32 3
  %115 = load i32, ptr %114, align 8, !tbaa !169
  %116 = and i32 %115, 146
  %117 = icmp ne i32 %116, 0
  %118 = select i1 %117, i32 3, i32 2
  %119 = load ptr, ptr %4, align 8, !tbaa !9
  %120 = getelementptr inbounds nuw %struct._zval_struct, ptr %119, i32 0, i32 1
  store i32 %118, ptr %120, align 8, !tbaa !13
  br label %121

121:                                              ; preds = %112
  br label %122

122:                                              ; preds = %121
  store i32 1, ptr %6, align 4
  br label %125

123:                                              ; No predecessors!
  br label %124

124:                                              ; preds = %123
  store i32 0, ptr %6, align 4
  br label %125

125:                                              ; preds = %124, %122, %107, %98, %73, %53
  call void @llvm.lifetime.end.p0(i64 8, ptr %8) #17
  call void @llvm.lifetime.end.p0(i64 8, ptr %7) #17
  br label %126

126:                                              ; preds = %125, %26
  call void @llvm.lifetime.end.p0(i64 144, ptr %5) #17
  %127 = load i32, ptr %6, align 4
  switch i32 %127, label %129 [
    i32 0, label %128
    i32 1, label %128
  ]

128:                                              ; preds = %126, %126
  ret void

129:                                              ; preds = %126
  unreachable
}