; Function Attrs: nounwind uwtable
define hidden void @zim_Phar_isWritable(ptr noundef readonly captures(none) %0, ptr noundef writeonly captures(none) %1) #0 {
  %3 = alloca %struct._php_stream_statbuf, align 8
  call void @llvm.lifetime.start.p0(i64 144, ptr nonnull %3) #20
  %4 = getelementptr inbounds nuw i8, ptr %0, i64 44
  %5 = load i32, ptr %4, align 4, !tbaa !8
  %.not = icmp eq i32 %5, 0
  br i1 %.not, label %.critedge, label %6, !prof !105

6:                                                ; preds = %2
  tail call void @zend_wrong_parameters_none_error() #20
  %7 = load ptr, ptr getelementptr inbounds nuw (i8, ptr @executor_globals, i64 960), align 8, !tbaa !9
  %8 = icmp ne ptr %7, null
  tail call void @llvm.assume(i1 %8)
  br label %45

.critedge:                                        ; preds = %2
  %9 = getelementptr inbounds nuw i8, ptr %0, i64 32
  %10 = load ptr, ptr %9, align 8, !tbaa !8
  %11 = getelementptr inbounds nuw i8, ptr %10, i64 24
  %12 = load ptr, ptr %11, align 8, !tbaa !109
  %13 = load i32, ptr %12, align 8, !tbaa !112
  %14 = sext i32 %13 to i64
  %15 = sub nsw i64 0, %14
  %16 = getelementptr inbounds i8, ptr %10, i64 %15
  %17 = load ptr, ptr %16, align 8, !tbaa !8
  %.not12 = icmp eq ptr %17, null
  br i1 %.not12, label %18, label %23

18:                                               ; preds = %.critedge
  %19 = load ptr, ptr @spl_ce_BadMethodCallException, align 8, !tbaa !54
  %20 = tail call ptr (ptr, i64, ptr, ...) @zend_throw_exception_ex(ptr noundef %19, i64 noundef 0, ptr noundef nonnull @.str.72) #20
  %21 = load ptr, ptr getelementptr inbounds nuw (i8, ptr @executor_globals, i64 960), align 8, !tbaa !9
  %22 = icmp ne ptr %21, null
  tail call void @llvm.assume(i1 %22)
  br label %45

23:                                               ; preds = %.critedge
  %24 = getelementptr inbounds nuw i8, ptr %17, i64 316
  %25 = load i16, ptr %24, align 4
  %26 = and i16 %25, 4
  %.not13 = icmp eq i16 %26, 0
  br i1 %.not13, label %27, label %29

27:                                               ; preds = %23
  %28 = getelementptr inbounds nuw i8, ptr %1, i64 8
  store i32 2, ptr %28, align 8, !tbaa !8
  br label %45

29:                                               ; preds = %23
  %30 = load ptr, ptr %17, align 8, !tbaa !117
  %31 = call i32 @_php_stream_stat_path(ptr noundef %30, i32 noundef 0, ptr noundef nonnull %3, ptr noundef null) #20
  %.not14 = icmp eq i32 %31, 0
  %32 = getelementptr inbounds nuw i8, ptr %1, i64 8
  br i1 %.not14, label %40, label %33

33:                                               ; preds = %29
  %34 = load ptr, ptr %16, align 8, !tbaa !8
  %35 = getelementptr inbounds nuw i8, ptr %34, i64 316
  %36 = load i16, ptr %35, align 4
  %37 = and i16 %36, 8
  %.not16 = icmp eq i16 %37, 0
  br i1 %.not16, label %39, label %38

38:                                               ; preds = %33
  store i32 3, ptr %32, align 8, !tbaa !8
  br label %45

39:                                               ; preds = %33
  store i32 2, ptr %32, align 8, !tbaa !8
  br label %45

40:                                               ; preds = %29
  %41 = getelementptr inbounds nuw i8, ptr %3, i64 24
  %42 = load i32, ptr %41, align 8, !tbaa !151
  %43 = and i32 %42, 146
  %.not15 = icmp eq i32 %43, 0
  %44 = select i1 %.not15, i32 2, i32 3
  store i32 %44, ptr %32, align 8, !tbaa !8
  br label %45

45:                                               ; preds = %18, %27, %38, %39, %40, %6
  call void @llvm.lifetime.end.p0(i64 144, ptr nonnull %3) #20
  ret void
}